target datalayout = "e-m:e-p270:32:32-p271:32:32-p272:64:64-i64:64-i128:128-f80:128-n8:16:32:64-S128"
target triple = "x86_64-pc-linux-gnu"

%struct._SpgmrMemRec = type { i32, ptr, ptr, ptr, ptr, ptr, ptr }

; Function Attrs: nounwind uwtable
define void @SpgmrFree(ptr noundef %0) #0 {
  %2 = alloca ptr, align 8
  %3 = alloca i32, align 4
  %4 = alloca i32, align 4
  %5 = alloca i32, align 4
  store ptr %0, ptr %2, align 8, !tbaa !23
  call void @llvm.lifetime.start.p0(i64 4, ptr %3) #5
  call void @llvm.lifetime.start.p0(i64 4, ptr %4) #5
  %6 = load ptr, ptr %2, align 8, !tbaa !23
  %7 = icmp eq ptr %6, null
  br i1 %7, label %8, label %9

8:                                                ; preds = %1
  store i32 1, ptr %5, align 4
  br label %50

9:                                                ; preds = %1
  %10 = load ptr, ptr %2, align 8, !tbaa !23
  %11 = getelementptr inbounds nuw %struct._SpgmrMemRec, ptr %10, i32 0, i32 0
  %12 = load i32, ptr %11, align 8, !tbaa !26
  store i32 %12, ptr %4, align 4, !tbaa !3
  store i32 0, ptr %3, align 4, !tbaa !3
  br label %13

13:                                               ; preds = %25, %9
  %14 = load i32, ptr %3, align 4, !tbaa !3
  %15 = load i32, ptr %4, align 4, !tbaa !3
  %16 = icmp sle i32 %14, %15
  br i1 %16, label %17, label %28

17:                                               ; preds = %13
  %18 = load ptr, ptr %2, align 8, !tbaa !23
  %19 = getelementptr inbounds nuw %struct._SpgmrMemRec, ptr %18, i32 0, i32 2
  %20 = load ptr, ptr %19, align 8, !tbaa !29
  %21 = load i32, ptr %3, align 4, !tbaa !3
  %22 = sext i32 %21 to i64
  %23 = getelementptr inbounds ptr, ptr %20, i64 %22
  %24 = load ptr, ptr %23, align 8, !tbaa !14
  call void @free(ptr noundef %24) #5
  br label %25

25:                                               ; preds = %17
  %26 = load i32, ptr %3, align 4, !tbaa !3
  %27 = add nsw i32 %26, 1
  store i32 %27, ptr %3, align 4, !tbaa !3
  br label %13, !llvm.loop !48

28:                                               ; preds = %13
  %29 = load ptr, ptr %2, align 8, !tbaa !23
  %30 = getelementptr inbounds nuw %struct._SpgmrMemRec, ptr %29, i32 0, i32 2
  %31 = load ptr, ptr %30, align 8, !tbaa !29
  call void @free(ptr noundef %31) #5
  %32 = load ptr, ptr %2, align 8, !tbaa !23
  %33 = getelementptr inbounds nuw %struct._SpgmrMemRec, ptr %32, i32 0, i32 3
  %34 = load ptr, ptr %33, align 8, !tbaa !30
  call void @free(ptr noundef %34) #5
  %35 = load ptr, ptr %2, align 8, !tbaa !23
  %36 = getelementptr inbounds nuw %struct._SpgmrMemRec, ptr %35, i32 0, i32 5
  %37 = load ptr, ptr %36, align 8, !tbaa !32
  call void @free(ptr noundef %37) #5
  %38 = load ptr, ptr %2, align 8, !tbaa !23
  %39 = getelementptr inbounds nuw %struct._SpgmrMemRec, ptr %38, i32 0, i32 1
  %40 = load ptr, ptr %39, align 8, !tbaa !28
  %41 = load i32, ptr %4, align 4, !tbaa !3
  %42 = add nsw i32 %41, 1
  call void @N_VDestroyVectorArray(ptr noundef %40, i32 noundef %42)
  %43 = load ptr, ptr %2, align 8, !tbaa !23
  %44 = getelementptr inbounds nuw %struct._SpgmrMemRec, ptr %43, i32 0, i32 4
  %45 = load ptr, ptr %44, align 8, !tbaa !31
  call void @N_VDestroy(ptr noundef %45)
  %46 = load ptr, ptr %2, align 8, !tbaa !23
  %47 = getelementptr inbounds nuw %struct._SpgmrMemRec, ptr %46, i32 0, i32 6
  %48 = load ptr, ptr %47, align 8, !tbaa !33
  call void @N_VDestroy(ptr noundef %48)
  %49 = load ptr, ptr %2, align 8, !tbaa !23
  call void @free(ptr noundef %49) #5
  store ptr null, ptr %2, align 8, !tbaa !23
  store i32 0, ptr %5, align 4
  br label %50

50:                                               ; preds = %28, %8
  call void @llvm.lifetime.end.p0(i64 4, ptr %4) #5
  call void @llvm.lifetime.end.p0(i64 4, ptr %3) #5
  %51 = load i32, ptr %5, align 4
  switch i32 %51, label %53 [
    i32 0, label %52
    i32 1, label %52
  ]

52:                                               ; preds = %50, %50
  ret void

53:                                               ; preds = %50
  unreachable
}