; Function Attrs: nounwind uwtable
define void @SpgmrFree(ptr noundef captures(address_is_null) %0) local_unnamed_addr #0 {
  %2 = icmp eq ptr %0, null
  br i1 %2, label %23, label %3

3:                                                ; preds = %1
  %4 = load i32, ptr %0, align 8, !tbaa !16
  %.not16 = icmp slt i32 %4, 0
  br i1 %.not16, label %.._crit_edge_crit_edge, label %.lr.ph

.._crit_edge_crit_edge:                           ; preds = %3
  %.pre = add nsw i32 %4, 1
  br label %._crit_edge

.lr.ph:                                           ; preds = %3
  %5 = getelementptr inbounds nuw i8, ptr %0, i64 16
  %6 = add nuw i32 %4, 1
  %wide.trip.count = zext i32 %6 to i64
  br label %7

7:                                                ; preds = %.lr.ph, %7
  %indvars.iv = phi i64 [ 0, %.lr.ph ], [ %indvars.iv.next, %7 ]
  %8 = load ptr, ptr %5, align 8, !tbaa !23
  %9 = getelementptr inbounds nuw ptr, ptr %8, i64 %indvars.iv
  %10 = load ptr, ptr %9, align 8, !tbaa !3
  tail call void @free(ptr noundef %10) #6
  %indvars.iv.next = add nuw nsw i64 %indvars.iv, 1
  %exitcond.not = icmp eq i64 %indvars.iv.next, %wide.trip.count
  br i1 %exitcond.not, label %._crit_edge, label %7, !llvm.loop !38

._crit_edge:                                      ; preds = %7, %.._crit_edge_crit_edge
  %.pre-phi = phi i32 [ %.pre, %.._crit_edge_crit_edge ], [ %6, %7 ]
  %11 = getelementptr inbounds nuw i8, ptr %0, i64 16
  %12 = load ptr, ptr %11, align 8, !tbaa !23
  tail call void @free(ptr noundef %12) #6
  %13 = getelementptr inbounds nuw i8, ptr %0, i64 24
  %14 = load ptr, ptr %13, align 8, !tbaa !24
  tail call void @free(ptr noundef %14) #6
  %15 = getelementptr inbounds nuw i8, ptr %0, i64 40
  %16 = load ptr, ptr %15, align 8, !tbaa !26
  tail call void @free(ptr noundef %16) #6
  %17 = getelementptr inbounds nuw i8, ptr %0, i64 8
  %18 = load ptr, ptr %17, align 8, !tbaa !22
  tail call void @N_VDestroyVectorArray(ptr noundef %18, i32 noundef %.pre-phi) #6
  %19 = getelementptr inbounds nuw i8, ptr %0, i64 32
  %20 = load ptr, ptr %19, align 8, !tbaa !25
  tail call void @N_VDestroy(ptr noundef %20) #6
  %21 = getelementptr inbounds nuw i8, ptr %0, i64 48
  %22 = load ptr, ptr %21, align 8, !tbaa !27
  tail call void @N_VDestroy(ptr noundef %22) #6
  tail call void @free(ptr noundef nonnull %0) #6
  br label %23

23:                                               ; preds = %1, %._crit_edge
  ret void
}